(lp0
S'poi'
p1
aS'salary'
p2
aS'restricted_stock'
p3
aS'long_term_incentive'
p4
aS'total_stock_value'
p5
aS'expenses'
p6
aS'other'
p7
aS'total_payments'
p8
aS'deferral_payments'
p9
aS'deferred_income'
p10
aS'exercised_stock_options'
p11
aS'loan_advances'
p12
aS'bonus'
p13
aS'from_messages'
p14
aS'to_messages'
p15
a.